
FinalProjectFromScratch.elf:     file format elf32-avr

Sections:
Idx Name          Size      VMA       LMA       File off  Algn
  0 .text         00000454  00000000  00000000  00000094  2**1
                  CONTENTS, ALLOC, LOAD, READONLY, CODE
  1 .data         00000014  00800060  00000454  000004e8  2**0
                  CONTENTS, ALLOC, LOAD, DATA
  2 .bss          00000040  00800074  00800074  000004fc  2**0
                  ALLOC
  3 .comment      00000030  00000000  00000000  000004fc  2**0
                  CONTENTS, READONLY
  4 .note.gnu.avr.deviceinfo 0000003c  00000000  00000000  0000052c  2**2
                  CONTENTS, READONLY

Disassembly of section .text:

00000000 <__vectors>:
   0:	0c 94 2c 00 	jmp	0x58	; 0x58 <__dtors_end>
   4:	0c 94 54 00 	jmp	0xa8	; 0xa8 <__bad_interrupt>
   8:	0c 94 54 00 	jmp	0xa8	; 0xa8 <__bad_interrupt>
   c:	0c 94 54 00 	jmp	0xa8	; 0xa8 <__bad_interrupt>
  10:	0c 94 54 00 	jmp	0xa8	; 0xa8 <__bad_interrupt>
  14:	0c 94 54 00 	jmp	0xa8	; 0xa8 <__bad_interrupt>
  18:	0c 94 54 00 	jmp	0xa8	; 0xa8 <__bad_interrupt>
  1c:	0c 94 96 00 	jmp	0x12c	; 0x12c <__vector_7>
  20:	0c 94 54 00 	jmp	0xa8	; 0xa8 <__bad_interrupt>
  24:	0c 94 54 00 	jmp	0xa8	; 0xa8 <__bad_interrupt>
  28:	0c 94 54 00 	jmp	0xa8	; 0xa8 <__bad_interrupt>
  2c:	0c 94 54 00 	jmp	0xa8	; 0xa8 <__bad_interrupt>
  30:	0c 94 54 00 	jmp	0xa8	; 0xa8 <__bad_interrupt>
  34:	0c 94 cd 01 	jmp	0x39a	; 0x39a <__vector_13>
  38:	0c 94 f2 01 	jmp	0x3e4	; 0x3e4 <__vector_14>
  3c:	0c 94 54 00 	jmp	0xa8	; 0xa8 <__bad_interrupt>
  40:	0c 94 a0 00 	jmp	0x140	; 0x140 <__vector_16>
  44:	0c 94 54 00 	jmp	0xa8	; 0xa8 <__bad_interrupt>
  48:	0c 94 54 00 	jmp	0xa8	; 0xa8 <__bad_interrupt>
  4c:	0c 94 54 00 	jmp	0xa8	; 0xa8 <__bad_interrupt>
  50:	0c 94 54 00 	jmp	0xa8	; 0xa8 <__bad_interrupt>

00000054 <__ctors_start>:
  54:	d7 00       	.word	0x00d7	; ????

00000056 <__ctors_end>:
  56:	db 00       	.word	0x00db	; ????

00000058 <__dtors_end>:
  58:	11 24       	eor	r1, r1
  5a:	1f be       	out	0x3f, r1	; 63
  5c:	cf e5       	ldi	r28, 0x5F	; 95
  5e:	d8 e0       	ldi	r29, 0x08	; 8
  60:	de bf       	out	0x3e, r29	; 62
  62:	cd bf       	out	0x3d, r28	; 61

00000064 <__do_copy_data>:
  64:	10 e0       	ldi	r17, 0x00	; 0
  66:	a0 e6       	ldi	r26, 0x60	; 96
  68:	b0 e0       	ldi	r27, 0x00	; 0
  6a:	e4 e5       	ldi	r30, 0x54	; 84
  6c:	f4 e0       	ldi	r31, 0x04	; 4
  6e:	02 c0       	rjmp	.+4      	; 0x74 <__do_copy_data+0x10>
  70:	05 90       	lpm	r0, Z+
  72:	0d 92       	st	X+, r0
  74:	a4 37       	cpi	r26, 0x74	; 116
  76:	b1 07       	cpc	r27, r17
  78:	d9 f7       	brne	.-10     	; 0x70 <__do_copy_data+0xc>

0000007a <__do_clear_bss>:
  7a:	20 e0       	ldi	r18, 0x00	; 0
  7c:	a4 e7       	ldi	r26, 0x74	; 116
  7e:	b0 e0       	ldi	r27, 0x00	; 0
  80:	01 c0       	rjmp	.+2      	; 0x84 <.do_clear_bss_start>

00000082 <.do_clear_bss_loop>:
  82:	1d 92       	st	X+, r1

00000084 <.do_clear_bss_start>:
  84:	a4 3b       	cpi	r26, 0xB4	; 180
  86:	b2 07       	cpc	r27, r18
  88:	e1 f7       	brne	.-8      	; 0x82 <.do_clear_bss_loop>

0000008a <__do_global_ctors>:
  8a:	10 e0       	ldi	r17, 0x00	; 0
  8c:	cb e2       	ldi	r28, 0x2B	; 43
  8e:	d0 e0       	ldi	r29, 0x00	; 0
  90:	04 c0       	rjmp	.+8      	; 0x9a <__do_global_ctors+0x10>
  92:	21 97       	sbiw	r28, 0x01	; 1
  94:	fe 01       	movw	r30, r28
  96:	0e 94 17 02 	call	0x42e	; 0x42e <__tablejump2__>
  9a:	ca 32       	cpi	r28, 0x2A	; 42
  9c:	d1 07       	cpc	r29, r17
  9e:	c9 f7       	brne	.-14     	; 0x92 <__do_global_ctors+0x8>
  a0:	0e 94 d2 00 	call	0x1a4	; 0x1a4 <main>
  a4:	0c 94 1d 02 	jmp	0x43a	; 0x43a <__do_global_dtors>

000000a8 <__bad_interrupt>:
  a8:	0c 94 00 00 	jmp	0	; 0x0 <__vectors>

000000ac <_ZN8InverterC1Ev>:
  ac:	fc 01       	movw	r30, r24
  ae:	11 82       	std	Z+1, r1	; 0x01
  b0:	10 82       	st	Z, r1
  b2:	13 82       	std	Z+3, r1	; 0x03
  b4:	12 82       	std	Z+2, r1	; 0x02
  b6:	15 82       	std	Z+5, r1	; 0x05
  b8:	14 82       	std	Z+4, r1	; 0x04
  ba:	f8 94       	cli
  bc:	87 b3       	in	r24, 0x17	; 23
  be:	88 63       	ori	r24, 0x38	; 56
  c0:	87 bb       	out	0x17, r24	; 23
  c2:	81 b3       	in	r24, 0x11	; 17
  c4:	80 6c       	ori	r24, 0xC0	; 192
  c6:	81 bb       	out	0x11, r24	; 17
  c8:	81 b3       	in	r24, 0x11	; 17
  ca:	83 7c       	andi	r24, 0xC3	; 195
  cc:	81 bb       	out	0x11, r24	; 17
  ce:	87 b1       	in	r24, 0x07	; 7
  d0:	80 66       	ori	r24, 0x60	; 96
  d2:	87 b9       	out	0x07, r24	; 7
  d4:	86 b1       	in	r24, 0x06	; 6
  d6:	8c 60       	ori	r24, 0x0C	; 12
  d8:	86 b9       	out	0x06, r24	; 6
  da:	37 9a       	sbi	0x06, 7	; 6
  dc:	78 94       	sei
  de:	36 9a       	sbi	0x06, 6	; 6
  e0:	2f e9       	ldi	r18, 0x9F	; 159
  e2:	86 e8       	ldi	r24, 0x86	; 134
  e4:	91 e0       	ldi	r25, 0x01	; 1
  e6:	21 50       	subi	r18, 0x01	; 1
  e8:	80 40       	sbci	r24, 0x00	; 0
  ea:	90 40       	sbci	r25, 0x00	; 0
  ec:	e1 f7       	brne	.-8      	; 0xe6 <_ZN8InverterC1Ev+0x3a>
  ee:	00 c0       	rjmp	.+0      	; 0xf0 <_ZN8InverterC1Ev+0x44>
  f0:	00 00       	nop
  f2:	08 95       	ret

000000f4 <_ZN8InverterD1Ev>:
  f4:	08 95       	ret

000000f6 <_ZN8Inverter18analogPinSwitchingEv>:
  f6:	fc 01       	movw	r30, r24
  f8:	87 b1       	in	r24, 0x07	; 7
  fa:	81 36       	cpi	r24, 0x61	; 97
  fc:	51 f0       	breq	.+20     	; 0x112 <_ZN8Inverter18analogPinSwitchingEv+0x1c>
  fe:	82 36       	cpi	r24, 0x62	; 98
 100:	71 f0       	breq	.+28     	; 0x11e <_ZN8Inverter18analogPinSwitchingEv+0x28>
 102:	80 36       	cpi	r24, 0x60	; 96
 104:	81 f4       	brne	.+32     	; 0x126 <_ZN8Inverter18analogPinSwitchingEv+0x30>
 106:	85 b1       	in	r24, 0x05	; 5
 108:	90 e0       	ldi	r25, 0x00	; 0
 10a:	91 83       	std	Z+1, r25	; 0x01
 10c:	80 83       	st	Z, r24
 10e:	81 e6       	ldi	r24, 0x61	; 97
 110:	0b c0       	rjmp	.+22     	; 0x128 <_ZN8Inverter18analogPinSwitchingEv+0x32>
 112:	85 b1       	in	r24, 0x05	; 5
 114:	90 e0       	ldi	r25, 0x00	; 0
 116:	93 83       	std	Z+3, r25	; 0x03
 118:	82 83       	std	Z+2, r24	; 0x02
 11a:	82 e6       	ldi	r24, 0x62	; 98
 11c:	05 c0       	rjmp	.+10     	; 0x128 <_ZN8Inverter18analogPinSwitchingEv+0x32>
 11e:	85 b1       	in	r24, 0x05	; 5
 120:	90 e0       	ldi	r25, 0x00	; 0
 122:	95 83       	std	Z+5, r25	; 0x05
 124:	84 83       	std	Z+4, r24	; 0x04
 126:	80 e6       	ldi	r24, 0x60	; 96
 128:	87 b9       	out	0x07, r24	; 7
 12a:	08 95       	ret

0000012c <__vector_7>:
 12c:	1f 92       	push	r1
 12e:	0f 92       	push	r0
 130:	0f b6       	in	r0, 0x3f	; 63
 132:	0f 92       	push	r0
 134:	11 24       	eor	r1, r1
 136:	0f 90       	pop	r0
 138:	0f be       	out	0x3f, r0	; 63
 13a:	0f 90       	pop	r0
 13c:	1f 90       	pop	r1
 13e:	18 95       	reti

00000140 <__vector_16>:
 140:	1f 92       	push	r1
 142:	0f 92       	push	r0
 144:	0f b6       	in	r0, 0x3f	; 63
 146:	0f 92       	push	r0
 148:	11 24       	eor	r1, r1
 14a:	2f 93       	push	r18
 14c:	3f 93       	push	r19
 14e:	4f 93       	push	r20
 150:	5f 93       	push	r21
 152:	6f 93       	push	r22
 154:	7f 93       	push	r23
 156:	8f 93       	push	r24
 158:	9f 93       	push	r25
 15a:	af 93       	push	r26
 15c:	bf 93       	push	r27
 15e:	ef 93       	push	r30
 160:	ff 93       	push	r31
 162:	84 e7       	ldi	r24, 0x74	; 116
 164:	90 e0       	ldi	r25, 0x00	; 0
 166:	0e 94 7b 00 	call	0xf6	; 0xf6 <_ZN8Inverter18analogPinSwitchingEv>
 16a:	36 9a       	sbi	0x06, 6	; 6
 16c:	ff 91       	pop	r31
 16e:	ef 91       	pop	r30
 170:	bf 91       	pop	r27
 172:	af 91       	pop	r26
 174:	9f 91       	pop	r25
 176:	8f 91       	pop	r24
 178:	7f 91       	pop	r23
 17a:	6f 91       	pop	r22
 17c:	5f 91       	pop	r21
 17e:	4f 91       	pop	r20
 180:	3f 91       	pop	r19
 182:	2f 91       	pop	r18
 184:	0f 90       	pop	r0
 186:	0f be       	out	0x3f, r0	; 63
 188:	0f 90       	pop	r0
 18a:	1f 90       	pop	r1
 18c:	18 95       	reti

0000018e <_Z14my_timer_setupv>:
 18e:	8e b5       	in	r24, 0x2e	; 46
 190:	8b 60       	ori	r24, 0x0B	; 11
 192:	8e bd       	out	0x2e, r24	; 46
 194:	89 b7       	in	r24, 0x39	; 57
 196:	80 61       	ori	r24, 0x10	; 16
 198:	89 bf       	out	0x39, r24	; 57
 19a:	88 e0       	ldi	r24, 0x08	; 8
 19c:	9d e3       	ldi	r25, 0x3D	; 61
 19e:	9b bd       	out	0x2b, r25	; 43
 1a0:	8a bd       	out	0x2a, r24	; 42
 1a2:	08 95       	ret

000001a4 <main>:
 1a4:	f8 94       	cli
 1a6:	78 94       	sei
 1a8:	0e 94 c7 00 	call	0x18e	; 0x18e <_Z14my_timer_setupv>
 1ac:	ff cf       	rjmp	.-2      	; 0x1ac <main+0x8>

000001ae <_GLOBAL__sub_I_inverter>:
 1ae:	84 e7       	ldi	r24, 0x74	; 116
 1b0:	90 e0       	ldi	r25, 0x00	; 0
 1b2:	0c 94 56 00 	jmp	0xac	; 0xac <_ZN8InverterC1Ev>

000001b6 <_GLOBAL__sub_D_inverter>:
 1b6:	84 e7       	ldi	r24, 0x74	; 116
 1b8:	90 e0       	ldi	r25, 0x00	; 0
 1ba:	0c 94 7a 00 	jmp	0xf4	; 0xf4 <_ZN8InverterD1Ev>

000001be <_Z22serialReceiveInterrupth>:
 1be:	cf 93       	push	r28
 1c0:	df 93       	push	r29
 1c2:	90 e0       	ldi	r25, 0x00	; 0
 1c4:	fc 01       	movw	r30, r24
 1c6:	ee 0f       	add	r30, r30
 1c8:	ff 1f       	adc	r31, r31
 1ca:	ee 57       	subi	r30, 0x7E	; 126
 1cc:	ff 4f       	sbci	r31, 0xFF	; 255
 1ce:	20 81       	ld	r18, Z
 1d0:	31 81       	ldd	r19, Z+1	; 0x01
 1d2:	4c e0       	ldi	r20, 0x0C	; 12
 1d4:	48 9f       	mul	r20, r24
 1d6:	d0 01       	movw	r26, r0
 1d8:	49 9f       	mul	r20, r25
 1da:	b0 0d       	add	r27, r0
 1dc:	11 24       	eor	r1, r1
 1de:	a9 59       	subi	r26, 0x99	; 153
 1e0:	bf 4f       	sbci	r27, 0xFF	; 255
 1e2:	0d 90       	ld	r0, X+
 1e4:	bc 91       	ld	r27, X
 1e6:	a0 2d       	mov	r26, r0
 1e8:	4c 91       	ld	r20, X
 1ea:	dc 01       	movw	r26, r24
 1ec:	55 e0       	ldi	r21, 0x05	; 5
 1ee:	aa 0f       	add	r26, r26
 1f0:	bb 1f       	adc	r27, r27
 1f2:	5a 95       	dec	r21
 1f4:	e1 f7       	brne	.-8      	; 0x1ee <_Z22serialReceiveInterrupth+0x30>
 1f6:	a2 0f       	add	r26, r18
 1f8:	b3 1f       	adc	r27, r19
 1fa:	ac 56       	subi	r26, 0x6C	; 108
 1fc:	bf 4f       	sbci	r27, 0xFF	; 255
 1fe:	4c 93       	st	X, r20
 200:	20 81       	ld	r18, Z
 202:	31 81       	ldd	r19, Z+1	; 0x01
 204:	2f 31       	cpi	r18, 0x1F	; 31
 206:	31 05       	cpc	r19, r1
 208:	38 f4       	brcc	.+14     	; 0x218 <_Z22serialReceiveInterrupth+0x5a>
 20a:	20 81       	ld	r18, Z
 20c:	31 81       	ldd	r19, Z+1	; 0x01
 20e:	2f 5f       	subi	r18, 0xFF	; 255
 210:	3f 4f       	sbci	r19, 0xFF	; 255
 212:	31 83       	std	Z+1, r19	; 0x01
 214:	20 83       	st	Z, r18
 216:	02 c0       	rjmp	.+4      	; 0x21c <_Z22serialReceiveInterrupth+0x5e>
 218:	11 82       	std	Z+1, r1	; 0x01
 21a:	10 82       	st	Z, r1
 21c:	fc 01       	movw	r30, r24
 21e:	e6 58       	subi	r30, 0x86	; 134
 220:	ff 4f       	sbci	r31, 0xFF	; 255
 222:	20 81       	ld	r18, Z
 224:	2f 5f       	subi	r18, 0xFF	; 255
 226:	20 83       	st	Z, r18
 228:	dc 01       	movw	r26, r24
 22a:	a5 58       	subi	r26, 0x85	; 133
 22c:	bf 4f       	sbci	r27, 0xFF	; 255
 22e:	2c 91       	ld	r18, X
 230:	21 30       	cpi	r18, 0x01	; 1
 232:	e9 f5       	brne	.+122    	; 0x2ae <_Z22serialReceiveInterrupth+0xf0>
 234:	20 81       	ld	r18, Z
 236:	2b 31       	cpi	r18, 0x1B	; 27
 238:	d0 f1       	brcs	.+116    	; 0x2ae <_Z22serialReceiveInterrupth+0xf0>
 23a:	23 e1       	ldi	r18, 0x13	; 19
 23c:	fc 01       	movw	r30, r24
 23e:	e4 58       	subi	r30, 0x84	; 132
 240:	ff 4f       	sbci	r31, 0xFF	; 255
 242:	20 83       	st	Z, r18
 244:	1c 92       	st	X, r1
 246:	fc 01       	movw	r30, r24
 248:	e3 58       	subi	r30, 0x83	; 131
 24a:	ff 4f       	sbci	r31, 0xFF	; 255
 24c:	20 81       	ld	r18, Z
 24e:	22 23       	and	r18, r18
 250:	71 f1       	breq	.+92     	; 0x2ae <_Z22serialReceiveInterrupth+0xf0>
 252:	10 82       	st	Z, r1
 254:	2c e0       	ldi	r18, 0x0C	; 12
 256:	28 9f       	mul	r18, r24
 258:	d0 01       	movw	r26, r0
 25a:	29 9f       	mul	r18, r25
 25c:	b0 0d       	add	r27, r0
 25e:	11 24       	eor	r1, r1
 260:	a9 59       	subi	r26, 0x99	; 153
 262:	bf 4f       	sbci	r27, 0xFF	; 255
 264:	12 96       	adiw	r26, 0x02	; 2
 266:	cd 91       	ld	r28, X+
 268:	dc 91       	ld	r29, X
 26a:	13 97       	sbiw	r26, 0x03	; 3
 26c:	48 81       	ld	r20, Y
 26e:	27 e0       	ldi	r18, 0x07	; 7
 270:	28 9f       	mul	r18, r24
 272:	f0 01       	movw	r30, r0
 274:	29 9f       	mul	r18, r25
 276:	f0 0d       	add	r31, r0
 278:	11 24       	eor	r1, r1
 27a:	e0 5a       	subi	r30, 0xA0	; 160
 27c:	ff 4f       	sbci	r31, 0xFF	; 255
 27e:	81 e0       	ldi	r24, 0x01	; 1
 280:	90 e0       	ldi	r25, 0x00	; 0
 282:	9c 01       	movw	r18, r24
 284:	05 80       	ldd	r0, Z+5	; 0x05
 286:	02 c0       	rjmp	.+4      	; 0x28c <_Z22serialReceiveInterrupth+0xce>
 288:	22 0f       	add	r18, r18
 28a:	33 1f       	adc	r19, r19
 28c:	0a 94       	dec	r0
 28e:	e2 f7       	brpl	.-8      	; 0x288 <_Z22serialReceiveInterrupth+0xca>
 290:	24 2b       	or	r18, r20
 292:	28 83       	st	Y, r18
 294:	16 96       	adiw	r26, 0x06	; 6
 296:	0d 90       	ld	r0, X+
 298:	bc 91       	ld	r27, X
 29a:	a0 2d       	mov	r26, r0
 29c:	2c 91       	ld	r18, X
 29e:	06 80       	ldd	r0, Z+6	; 0x06
 2a0:	02 c0       	rjmp	.+4      	; 0x2a6 <_Z22serialReceiveInterrupth+0xe8>
 2a2:	88 0f       	add	r24, r24
 2a4:	99 1f       	adc	r25, r25
 2a6:	0a 94       	dec	r0
 2a8:	e2 f7       	brpl	.-8      	; 0x2a2 <_Z22serialReceiveInterrupth+0xe4>
 2aa:	82 2b       	or	r24, r18
 2ac:	8c 93       	st	X, r24
 2ae:	df 91       	pop	r29
 2b0:	cf 91       	pop	r28
 2b2:	08 95       	ret

000002b4 <_Z23serialTransmitInterrupth>:
 2b4:	cf 93       	push	r28
 2b6:	df 93       	push	r29
 2b8:	90 e0       	ldi	r25, 0x00	; 0
 2ba:	fc 01       	movw	r30, r24
 2bc:	e4 58       	subi	r30, 0x84	; 132
 2be:	ff 4f       	sbci	r31, 0xFF	; 255
 2c0:	20 81       	ld	r18, Z
 2c2:	22 23       	and	r18, r18
 2c4:	79 f0       	breq	.+30     	; 0x2e4 <_Z23serialTransmitInterrupth+0x30>
 2c6:	2c e0       	ldi	r18, 0x0C	; 12
 2c8:	28 9f       	mul	r18, r24
 2ca:	d0 01       	movw	r26, r0
 2cc:	29 9f       	mul	r18, r25
 2ce:	b0 0d       	add	r27, r0
 2d0:	11 24       	eor	r1, r1
 2d2:	a9 59       	subi	r26, 0x99	; 153
 2d4:	bf 4f       	sbci	r27, 0xFF	; 255
 2d6:	0d 90       	ld	r0, X+
 2d8:	bc 91       	ld	r27, X
 2da:	a0 2d       	mov	r26, r0
 2dc:	80 81       	ld	r24, Z
 2de:	8c 93       	st	X, r24
 2e0:	10 82       	st	Z, r1
 2e2:	58 c0       	rjmp	.+176    	; 0x394 <_Z23serialTransmitInterrupth+0xe0>
 2e4:	9c 01       	movw	r18, r24
 2e6:	22 0f       	add	r18, r18
 2e8:	33 1f       	adc	r19, r19
 2ea:	f9 01       	movw	r30, r18
 2ec:	e0 58       	subi	r30, 0x80	; 128
 2ee:	ff 4f       	sbci	r31, 0xFF	; 255
 2f0:	40 81       	ld	r20, Z
 2f2:	51 81       	ldd	r21, Z+1	; 0x01
 2f4:	d9 01       	movw	r26, r18
 2f6:	a2 58       	subi	r26, 0x82	; 130
 2f8:	bf 4f       	sbci	r27, 0xFF	; 255
 2fa:	2d 91       	ld	r18, X+
 2fc:	3c 91       	ld	r19, X
 2fe:	42 17       	cp	r20, r18
 300:	53 07       	cpc	r21, r19
 302:	29 f1       	breq	.+74     	; 0x34e <_Z23serialTransmitInterrupth+0x9a>
 304:	2c e0       	ldi	r18, 0x0C	; 12
 306:	28 9f       	mul	r18, r24
 308:	d0 01       	movw	r26, r0
 30a:	29 9f       	mul	r18, r25
 30c:	b0 0d       	add	r27, r0
 30e:	11 24       	eor	r1, r1
 310:	a9 59       	subi	r26, 0x99	; 153
 312:	bf 4f       	sbci	r27, 0xFF	; 255
 314:	cd 91       	ld	r28, X+
 316:	dc 91       	ld	r29, X
 318:	20 81       	ld	r18, Z
 31a:	31 81       	ldd	r19, Z+1	; 0x01
 31c:	dc 01       	movw	r26, r24
 31e:	84 e0       	ldi	r24, 0x04	; 4
 320:	aa 0f       	add	r26, r26
 322:	bb 1f       	adc	r27, r27
 324:	8a 95       	dec	r24
 326:	e1 f7       	brne	.-8      	; 0x320 <_Z23serialTransmitInterrupth+0x6c>
 328:	a2 0f       	add	r26, r18
 32a:	b3 1f       	adc	r27, r19
 32c:	ac 57       	subi	r26, 0x7C	; 124
 32e:	bf 4f       	sbci	r27, 0xFF	; 255
 330:	8c 91       	ld	r24, X
 332:	88 83       	st	Y, r24
 334:	80 81       	ld	r24, Z
 336:	91 81       	ldd	r25, Z+1	; 0x01
 338:	0f 97       	sbiw	r24, 0x0f	; 15
 33a:	30 f4       	brcc	.+12     	; 0x348 <_Z23serialTransmitInterrupth+0x94>
 33c:	80 81       	ld	r24, Z
 33e:	91 81       	ldd	r25, Z+1	; 0x01
 340:	01 96       	adiw	r24, 0x01	; 1
 342:	91 83       	std	Z+1, r25	; 0x01
 344:	80 83       	st	Z, r24
 346:	26 c0       	rjmp	.+76     	; 0x394 <_Z23serialTransmitInterrupth+0xe0>
 348:	11 82       	std	Z+1, r1	; 0x01
 34a:	10 82       	st	Z, r1
 34c:	23 c0       	rjmp	.+70     	; 0x394 <_Z23serialTransmitInterrupth+0xe0>
 34e:	fc 01       	movw	r30, r24
 350:	e3 58       	subi	r30, 0x83	; 131
 352:	ff 4f       	sbci	r31, 0xFF	; 255
 354:	21 e0       	ldi	r18, 0x01	; 1
 356:	20 83       	st	Z, r18
 358:	2c e0       	ldi	r18, 0x0C	; 12
 35a:	28 9f       	mul	r18, r24
 35c:	f0 01       	movw	r30, r0
 35e:	29 9f       	mul	r18, r25
 360:	f0 0d       	add	r31, r0
 362:	11 24       	eor	r1, r1
 364:	e9 59       	subi	r30, 0x99	; 153
 366:	ff 4f       	sbci	r31, 0xFF	; 255
 368:	a2 81       	ldd	r26, Z+2	; 0x02
 36a:	b3 81       	ldd	r27, Z+3	; 0x03
 36c:	2c 91       	ld	r18, X
 36e:	37 e0       	ldi	r19, 0x07	; 7
 370:	38 9f       	mul	r19, r24
 372:	f0 01       	movw	r30, r0
 374:	39 9f       	mul	r19, r25
 376:	f0 0d       	add	r31, r0
 378:	11 24       	eor	r1, r1
 37a:	e0 5a       	subi	r30, 0xA0	; 160
 37c:	ff 4f       	sbci	r31, 0xFF	; 255
 37e:	81 e0       	ldi	r24, 0x01	; 1
 380:	90 e0       	ldi	r25, 0x00	; 0
 382:	05 80       	ldd	r0, Z+5	; 0x05
 384:	02 c0       	rjmp	.+4      	; 0x38a <_Z23serialTransmitInterrupth+0xd6>
 386:	88 0f       	add	r24, r24
 388:	99 1f       	adc	r25, r25
 38a:	0a 94       	dec	r0
 38c:	e2 f7       	brpl	.-8      	; 0x386 <_Z23serialTransmitInterrupth+0xd2>
 38e:	80 95       	com	r24
 390:	82 23       	and	r24, r18
 392:	8c 93       	st	X, r24
 394:	df 91       	pop	r29
 396:	cf 91       	pop	r28
 398:	08 95       	ret

0000039a <__vector_13>:
 39a:	1f 92       	push	r1
 39c:	0f 92       	push	r0
 39e:	0f b6       	in	r0, 0x3f	; 63
 3a0:	0f 92       	push	r0
 3a2:	11 24       	eor	r1, r1
 3a4:	2f 93       	push	r18
 3a6:	3f 93       	push	r19
 3a8:	4f 93       	push	r20
 3aa:	5f 93       	push	r21
 3ac:	6f 93       	push	r22
 3ae:	7f 93       	push	r23
 3b0:	8f 93       	push	r24
 3b2:	9f 93       	push	r25
 3b4:	af 93       	push	r26
 3b6:	bf 93       	push	r27
 3b8:	ef 93       	push	r30
 3ba:	ff 93       	push	r31
 3bc:	80 e0       	ldi	r24, 0x00	; 0
 3be:	0e 94 df 00 	call	0x1be	; 0x1be <_Z22serialReceiveInterrupth>
 3c2:	ff 91       	pop	r31
 3c4:	ef 91       	pop	r30
 3c6:	bf 91       	pop	r27
 3c8:	af 91       	pop	r26
 3ca:	9f 91       	pop	r25
 3cc:	8f 91       	pop	r24
 3ce:	7f 91       	pop	r23
 3d0:	6f 91       	pop	r22
 3d2:	5f 91       	pop	r21
 3d4:	4f 91       	pop	r20
 3d6:	3f 91       	pop	r19
 3d8:	2f 91       	pop	r18
 3da:	0f 90       	pop	r0
 3dc:	0f be       	out	0x3f, r0	; 63
 3de:	0f 90       	pop	r0
 3e0:	1f 90       	pop	r1
 3e2:	18 95       	reti

000003e4 <__vector_14>:
 3e4:	1f 92       	push	r1
 3e6:	0f 92       	push	r0
 3e8:	0f b6       	in	r0, 0x3f	; 63
 3ea:	0f 92       	push	r0
 3ec:	11 24       	eor	r1, r1
 3ee:	2f 93       	push	r18
 3f0:	3f 93       	push	r19
 3f2:	4f 93       	push	r20
 3f4:	5f 93       	push	r21
 3f6:	6f 93       	push	r22
 3f8:	7f 93       	push	r23
 3fa:	8f 93       	push	r24
 3fc:	9f 93       	push	r25
 3fe:	af 93       	push	r26
 400:	bf 93       	push	r27
 402:	ef 93       	push	r30
 404:	ff 93       	push	r31
 406:	80 e0       	ldi	r24, 0x00	; 0
 408:	0e 94 5a 01 	call	0x2b4	; 0x2b4 <_Z23serialTransmitInterrupth>
 40c:	ff 91       	pop	r31
 40e:	ef 91       	pop	r30
 410:	bf 91       	pop	r27
 412:	af 91       	pop	r26
 414:	9f 91       	pop	r25
 416:	8f 91       	pop	r24
 418:	7f 91       	pop	r23
 41a:	6f 91       	pop	r22
 41c:	5f 91       	pop	r21
 41e:	4f 91       	pop	r20
 420:	3f 91       	pop	r19
 422:	2f 91       	pop	r18
 424:	0f 90       	pop	r0
 426:	0f be       	out	0x3f, r0	; 63
 428:	0f 90       	pop	r0
 42a:	1f 90       	pop	r1
 42c:	18 95       	reti

0000042e <__tablejump2__>:
 42e:	ee 0f       	add	r30, r30
 430:	ff 1f       	adc	r31, r31
 432:	05 90       	lpm	r0, Z+
 434:	f4 91       	lpm	r31, Z
 436:	e0 2d       	mov	r30, r0
 438:	09 94       	ijmp

0000043a <__do_global_dtors>:
 43a:	10 e0       	ldi	r17, 0x00	; 0
 43c:	cb e2       	ldi	r28, 0x2B	; 43
 43e:	d0 e0       	ldi	r29, 0x00	; 0
 440:	04 c0       	rjmp	.+8      	; 0x44a <__do_global_dtors+0x10>
 442:	fe 01       	movw	r30, r28
 444:	0e 94 17 02 	call	0x42e	; 0x42e <__tablejump2__>
 448:	21 96       	adiw	r28, 0x01	; 1
 44a:	cc 32       	cpi	r28, 0x2C	; 44
 44c:	d1 07       	cpc	r29, r17
 44e:	c9 f7       	brne	.-14     	; 0x442 <__do_global_dtors+0x8>
 450:	f8 94       	cli

00000452 <__stop_program>:
 452:	ff cf       	rjmp	.-2      	; 0x452 <__stop_program>
