
FinalProjectFromScratch.elf:     file format elf32-avr

Sections:
Idx Name          Size      VMA       LMA       File off  Algn
  0 .text         0000046a  00000000  00000000  00000094  2**1
                  CONTENTS, ALLOC, LOAD, READONLY, CODE
  1 .data         00000014  00800060  0000046a  000004fe  2**0
                  CONTENTS, ALLOC, LOAD, DATA
  2 .bss          00000040  00800074  00800074  00000512  2**0
                  ALLOC
  3 .comment      00000030  00000000  00000000  00000512  2**0
                  CONTENTS, READONLY
  4 .note.gnu.avr.deviceinfo 0000003c  00000000  00000000  00000544  2**2
                  CONTENTS, READONLY

Disassembly of section .text:

00000000 <__vectors>:
   0:	0c 94 2c 00 	jmp	0x58	; 0x58 <__dtors_end>
   4:	0c 94 54 00 	jmp	0xa8	; 0xa8 <__bad_interrupt>
   8:	0c 94 54 00 	jmp	0xa8	; 0xa8 <__bad_interrupt>
   c:	0c 94 54 00 	jmp	0xa8	; 0xa8 <__bad_interrupt>
  10:	0c 94 54 00 	jmp	0xa8	; 0xa8 <__bad_interrupt>
  14:	0c 94 54 00 	jmp	0xa8	; 0xa8 <__bad_interrupt>
  18:	0c 94 54 00 	jmp	0xa8	; 0xa8 <__bad_interrupt>
  1c:	0c 94 9c 00 	jmp	0x138	; 0x138 <__vector_7>
  20:	0c 94 54 00 	jmp	0xa8	; 0xa8 <__bad_interrupt>
  24:	0c 94 54 00 	jmp	0xa8	; 0xa8 <__bad_interrupt>
  28:	0c 94 54 00 	jmp	0xa8	; 0xa8 <__bad_interrupt>
  2c:	0c 94 54 00 	jmp	0xa8	; 0xa8 <__bad_interrupt>
  30:	0c 94 54 00 	jmp	0xa8	; 0xa8 <__bad_interrupt>
  34:	0c 94 d8 01 	jmp	0x3b0	; 0x3b0 <__vector_13>
  38:	0c 94 fd 01 	jmp	0x3fa	; 0x3fa <__vector_14>
  3c:	0c 94 54 00 	jmp	0xa8	; 0xa8 <__bad_interrupt>
  40:	0c 94 a6 00 	jmp	0x14c	; 0x14c <__vector_16>
  44:	0c 94 54 00 	jmp	0xa8	; 0xa8 <__bad_interrupt>
  48:	0c 94 54 00 	jmp	0xa8	; 0xa8 <__bad_interrupt>
  4c:	0c 94 54 00 	jmp	0xa8	; 0xa8 <__bad_interrupt>
  50:	0c 94 54 00 	jmp	0xa8	; 0xa8 <__bad_interrupt>

00000054 <__ctors_start>:
  54:	e2 00       	.word	0x00e2	; ????

00000056 <__ctors_end>:
  56:	e6 00       	.word	0x00e6	; ????

00000058 <__dtors_end>:
  58:	11 24       	eor	r1, r1
  5a:	1f be       	out	0x3f, r1	; 63
  5c:	cf e5       	ldi	r28, 0x5F	; 95
  5e:	d8 e0       	ldi	r29, 0x08	; 8
  60:	de bf       	out	0x3e, r29	; 62
  62:	cd bf       	out	0x3d, r28	; 61

00000064 <__do_copy_data>:
  64:	10 e0       	ldi	r17, 0x00	; 0
  66:	a0 e6       	ldi	r26, 0x60	; 96
  68:	b0 e0       	ldi	r27, 0x00	; 0
  6a:	ea e6       	ldi	r30, 0x6A	; 106
  6c:	f4 e0       	ldi	r31, 0x04	; 4
  6e:	02 c0       	rjmp	.+4      	; 0x74 <__do_copy_data+0x10>
  70:	05 90       	lpm	r0, Z+
  72:	0d 92       	st	X+, r0
  74:	a4 37       	cpi	r26, 0x74	; 116
  76:	b1 07       	cpc	r27, r17
  78:	d9 f7       	brne	.-10     	; 0x70 <__do_copy_data+0xc>

0000007a <__do_clear_bss>:
  7a:	20 e0       	ldi	r18, 0x00	; 0
  7c:	a4 e7       	ldi	r26, 0x74	; 116
  7e:	b0 e0       	ldi	r27, 0x00	; 0
  80:	01 c0       	rjmp	.+2      	; 0x84 <.do_clear_bss_start>

00000082 <.do_clear_bss_loop>:
  82:	1d 92       	st	X+, r1

00000084 <.do_clear_bss_start>:
  84:	a4 3b       	cpi	r26, 0xB4	; 180
  86:	b2 07       	cpc	r27, r18
  88:	e1 f7       	brne	.-8      	; 0x82 <.do_clear_bss_loop>

0000008a <__do_global_ctors>:
  8a:	10 e0       	ldi	r17, 0x00	; 0
  8c:	cb e2       	ldi	r28, 0x2B	; 43
  8e:	d0 e0       	ldi	r29, 0x00	; 0
  90:	04 c0       	rjmp	.+8      	; 0x9a <__do_global_ctors+0x10>
  92:	21 97       	sbiw	r28, 0x01	; 1
  94:	fe 01       	movw	r30, r28
  96:	0e 94 22 02 	call	0x444	; 0x444 <__tablejump2__>
  9a:	ca 32       	cpi	r28, 0x2A	; 42
  9c:	d1 07       	cpc	r29, r17
  9e:	c9 f7       	brne	.-14     	; 0x92 <__do_global_ctors+0x8>
  a0:	0e 94 d8 00 	call	0x1b0	; 0x1b0 <main>
  a4:	0c 94 28 02 	jmp	0x450	; 0x450 <__do_global_dtors>

000000a8 <__bad_interrupt>:
  a8:	0c 94 00 00 	jmp	0	; 0x0 <__vectors>

000000ac <_ZN8InverterC1Ev>:
  ac:	fc 01       	movw	r30, r24
  ae:	11 82       	std	Z+1, r1	; 0x01
  b0:	10 82       	st	Z, r1
  b2:	13 82       	std	Z+3, r1	; 0x03
  b4:	12 82       	std	Z+2, r1	; 0x02
  b6:	15 82       	std	Z+5, r1	; 0x05
  b8:	14 82       	std	Z+4, r1	; 0x04
  ba:	f8 94       	cli
  bc:	87 b3       	in	r24, 0x17	; 23
  be:	88 63       	ori	r24, 0x38	; 56
  c0:	87 bb       	out	0x17, r24	; 23
  c2:	81 b3       	in	r24, 0x11	; 17
  c4:	80 6c       	ori	r24, 0xC0	; 192
  c6:	81 bb       	out	0x11, r24	; 17
  c8:	81 b3       	in	r24, 0x11	; 17
  ca:	83 7c       	andi	r24, 0xC3	; 195
  cc:	81 bb       	out	0x11, r24	; 17
  ce:	87 b1       	in	r24, 0x07	; 7
  d0:	80 66       	ori	r24, 0x60	; 96
  d2:	87 b9       	out	0x07, r24	; 7
  d4:	86 b1       	in	r24, 0x06	; 6
  d6:	8c 60       	ori	r24, 0x0C	; 12
  d8:	86 b9       	out	0x06, r24	; 6
  da:	37 9a       	sbi	0x06, 7	; 6
  dc:	78 94       	sei
  de:	36 9a       	sbi	0x06, 6	; 6
  e0:	2f e9       	ldi	r18, 0x9F	; 159
  e2:	86 e8       	ldi	r24, 0x86	; 134
  e4:	91 e0       	ldi	r25, 0x01	; 1
  e6:	21 50       	subi	r18, 0x01	; 1
  e8:	80 40       	sbci	r24, 0x00	; 0
  ea:	90 40       	sbci	r25, 0x00	; 0
  ec:	e1 f7       	brne	.-8      	; 0xe6 <_ZN8InverterC1Ev+0x3a>
  ee:	00 c0       	rjmp	.+0      	; 0xf0 <_ZN8InverterC1Ev+0x44>
  f0:	00 00       	nop
  f2:	08 95       	ret

000000f4 <_ZN8InverterD1Ev>:
  f4:	08 95       	ret

000000f6 <_ZN8Inverter9setSwitchEb>:
  f6:	66 23       	and	r22, r22
  f8:	11 f0       	breq	.+4      	; 0xfe <_ZN8Inverter9setSwitchEb+0x8>
  fa:	96 98       	cbi	0x12, 6	; 18
  fc:	08 95       	ret
  fe:	96 9a       	sbi	0x12, 6	; 18
 100:	08 95       	ret

00000102 <_ZN8Inverter18analogPinSwitchingEv>:
 102:	fc 01       	movw	r30, r24
 104:	87 b1       	in	r24, 0x07	; 7
 106:	81 36       	cpi	r24, 0x61	; 97
 108:	51 f0       	breq	.+20     	; 0x11e <_ZN8Inverter18analogPinSwitchingEv+0x1c>
 10a:	82 36       	cpi	r24, 0x62	; 98
 10c:	71 f0       	breq	.+28     	; 0x12a <_ZN8Inverter18analogPinSwitchingEv+0x28>
 10e:	80 36       	cpi	r24, 0x60	; 96
 110:	81 f4       	brne	.+32     	; 0x132 <_ZN8Inverter18analogPinSwitchingEv+0x30>
 112:	85 b1       	in	r24, 0x05	; 5
 114:	90 e0       	ldi	r25, 0x00	; 0
 116:	91 83       	std	Z+1, r25	; 0x01
 118:	80 83       	st	Z, r24
 11a:	81 e6       	ldi	r24, 0x61	; 97
 11c:	0b c0       	rjmp	.+22     	; 0x134 <_ZN8Inverter18analogPinSwitchingEv+0x32>
 11e:	85 b1       	in	r24, 0x05	; 5
 120:	90 e0       	ldi	r25, 0x00	; 0
 122:	93 83       	std	Z+3, r25	; 0x03
 124:	82 83       	std	Z+2, r24	; 0x02
 126:	82 e6       	ldi	r24, 0x62	; 98
 128:	05 c0       	rjmp	.+10     	; 0x134 <_ZN8Inverter18analogPinSwitchingEv+0x32>
 12a:	85 b1       	in	r24, 0x05	; 5
 12c:	90 e0       	ldi	r25, 0x00	; 0
 12e:	95 83       	std	Z+5, r25	; 0x05
 130:	84 83       	std	Z+4, r24	; 0x04
 132:	80 e6       	ldi	r24, 0x60	; 96
 134:	87 b9       	out	0x07, r24	; 7
 136:	08 95       	ret

00000138 <__vector_7>:
 138:	1f 92       	push	r1
 13a:	0f 92       	push	r0
 13c:	0f b6       	in	r0, 0x3f	; 63
 13e:	0f 92       	push	r0
 140:	11 24       	eor	r1, r1
 142:	0f 90       	pop	r0
 144:	0f be       	out	0x3f, r0	; 63
 146:	0f 90       	pop	r0
 148:	1f 90       	pop	r1
 14a:	18 95       	reti

0000014c <__vector_16>:
 14c:	1f 92       	push	r1
 14e:	0f 92       	push	r0
 150:	0f b6       	in	r0, 0x3f	; 63
 152:	0f 92       	push	r0
 154:	11 24       	eor	r1, r1
 156:	2f 93       	push	r18
 158:	3f 93       	push	r19
 15a:	4f 93       	push	r20
 15c:	5f 93       	push	r21
 15e:	6f 93       	push	r22
 160:	7f 93       	push	r23
 162:	8f 93       	push	r24
 164:	9f 93       	push	r25
 166:	af 93       	push	r26
 168:	bf 93       	push	r27
 16a:	ef 93       	push	r30
 16c:	ff 93       	push	r31
 16e:	84 e7       	ldi	r24, 0x74	; 116
 170:	90 e0       	ldi	r25, 0x00	; 0
 172:	0e 94 81 00 	call	0x102	; 0x102 <_ZN8Inverter18analogPinSwitchingEv>
 176:	36 9a       	sbi	0x06, 6	; 6
 178:	ff 91       	pop	r31
 17a:	ef 91       	pop	r30
 17c:	bf 91       	pop	r27
 17e:	af 91       	pop	r26
 180:	9f 91       	pop	r25
 182:	8f 91       	pop	r24
 184:	7f 91       	pop	r23
 186:	6f 91       	pop	r22
 188:	5f 91       	pop	r21
 18a:	4f 91       	pop	r20
 18c:	3f 91       	pop	r19
 18e:	2f 91       	pop	r18
 190:	0f 90       	pop	r0
 192:	0f be       	out	0x3f, r0	; 63
 194:	0f 90       	pop	r0
 196:	1f 90       	pop	r1
 198:	18 95       	reti

0000019a <_Z14my_timer_setupv>:
 19a:	8e b5       	in	r24, 0x2e	; 46
 19c:	8b 60       	ori	r24, 0x0B	; 11
 19e:	8e bd       	out	0x2e, r24	; 46
 1a0:	89 b7       	in	r24, 0x39	; 57
 1a2:	80 61       	ori	r24, 0x10	; 16
 1a4:	89 bf       	out	0x39, r24	; 57
 1a6:	88 e0       	ldi	r24, 0x08	; 8
 1a8:	9d e3       	ldi	r25, 0x3D	; 61
 1aa:	9b bd       	out	0x2b, r25	; 43
 1ac:	8a bd       	out	0x2a, r24	; 42
 1ae:	08 95       	ret

000001b0 <main>:
 1b0:	f8 94       	cli
 1b2:	78 94       	sei
 1b4:	0e 94 cd 00 	call	0x19a	; 0x19a <_Z14my_timer_setupv>
 1b8:	60 e0       	ldi	r22, 0x00	; 0
 1ba:	84 e7       	ldi	r24, 0x74	; 116
 1bc:	90 e0       	ldi	r25, 0x00	; 0
 1be:	0e 94 7b 00 	call	0xf6	; 0xf6 <_ZN8Inverter9setSwitchEb>
 1c2:	ff cf       	rjmp	.-2      	; 0x1c2 <main+0x12>

000001c4 <_GLOBAL__sub_I_inverter>:
 1c4:	84 e7       	ldi	r24, 0x74	; 116
 1c6:	90 e0       	ldi	r25, 0x00	; 0
 1c8:	0c 94 56 00 	jmp	0xac	; 0xac <_ZN8InverterC1Ev>

000001cc <_GLOBAL__sub_D_inverter>:
 1cc:	84 e7       	ldi	r24, 0x74	; 116
 1ce:	90 e0       	ldi	r25, 0x00	; 0
 1d0:	0c 94 7a 00 	jmp	0xf4	; 0xf4 <_ZN8InverterD1Ev>

000001d4 <_Z22serialReceiveInterrupth>:
 1d4:	cf 93       	push	r28
 1d6:	df 93       	push	r29
 1d8:	90 e0       	ldi	r25, 0x00	; 0
 1da:	fc 01       	movw	r30, r24
 1dc:	ee 0f       	add	r30, r30
 1de:	ff 1f       	adc	r31, r31
 1e0:	ee 57       	subi	r30, 0x7E	; 126
 1e2:	ff 4f       	sbci	r31, 0xFF	; 255
 1e4:	20 81       	ld	r18, Z
 1e6:	31 81       	ldd	r19, Z+1	; 0x01
 1e8:	4c e0       	ldi	r20, 0x0C	; 12
 1ea:	48 9f       	mul	r20, r24
 1ec:	d0 01       	movw	r26, r0
 1ee:	49 9f       	mul	r20, r25
 1f0:	b0 0d       	add	r27, r0
 1f2:	11 24       	eor	r1, r1
 1f4:	a9 59       	subi	r26, 0x99	; 153
 1f6:	bf 4f       	sbci	r27, 0xFF	; 255
 1f8:	0d 90       	ld	r0, X+
 1fa:	bc 91       	ld	r27, X
 1fc:	a0 2d       	mov	r26, r0
 1fe:	4c 91       	ld	r20, X
 200:	dc 01       	movw	r26, r24
 202:	55 e0       	ldi	r21, 0x05	; 5
 204:	aa 0f       	add	r26, r26
 206:	bb 1f       	adc	r27, r27
 208:	5a 95       	dec	r21
 20a:	e1 f7       	brne	.-8      	; 0x204 <_Z22serialReceiveInterrupth+0x30>
 20c:	a2 0f       	add	r26, r18
 20e:	b3 1f       	adc	r27, r19
 210:	ac 56       	subi	r26, 0x6C	; 108
 212:	bf 4f       	sbci	r27, 0xFF	; 255
 214:	4c 93       	st	X, r20
 216:	20 81       	ld	r18, Z
 218:	31 81       	ldd	r19, Z+1	; 0x01
 21a:	2f 31       	cpi	r18, 0x1F	; 31
 21c:	31 05       	cpc	r19, r1
 21e:	38 f4       	brcc	.+14     	; 0x22e <_Z22serialReceiveInterrupth+0x5a>
 220:	20 81       	ld	r18, Z
 222:	31 81       	ldd	r19, Z+1	; 0x01
 224:	2f 5f       	subi	r18, 0xFF	; 255
 226:	3f 4f       	sbci	r19, 0xFF	; 255
 228:	31 83       	std	Z+1, r19	; 0x01
 22a:	20 83       	st	Z, r18
 22c:	02 c0       	rjmp	.+4      	; 0x232 <_Z22serialReceiveInterrupth+0x5e>
 22e:	11 82       	std	Z+1, r1	; 0x01
 230:	10 82       	st	Z, r1
 232:	fc 01       	movw	r30, r24
 234:	e6 58       	subi	r30, 0x86	; 134
 236:	ff 4f       	sbci	r31, 0xFF	; 255
 238:	20 81       	ld	r18, Z
 23a:	2f 5f       	subi	r18, 0xFF	; 255
 23c:	20 83       	st	Z, r18
 23e:	dc 01       	movw	r26, r24
 240:	a5 58       	subi	r26, 0x85	; 133
 242:	bf 4f       	sbci	r27, 0xFF	; 255
 244:	2c 91       	ld	r18, X
 246:	21 30       	cpi	r18, 0x01	; 1
 248:	e9 f5       	brne	.+122    	; 0x2c4 <_Z22serialReceiveInterrupth+0xf0>
 24a:	20 81       	ld	r18, Z
 24c:	2b 31       	cpi	r18, 0x1B	; 27
 24e:	d0 f1       	brcs	.+116    	; 0x2c4 <_Z22serialReceiveInterrupth+0xf0>
 250:	23 e1       	ldi	r18, 0x13	; 19
 252:	fc 01       	movw	r30, r24
 254:	e4 58       	subi	r30, 0x84	; 132
 256:	ff 4f       	sbci	r31, 0xFF	; 255
 258:	20 83       	st	Z, r18
 25a:	1c 92       	st	X, r1
 25c:	fc 01       	movw	r30, r24
 25e:	e3 58       	subi	r30, 0x83	; 131
 260:	ff 4f       	sbci	r31, 0xFF	; 255
 262:	20 81       	ld	r18, Z
 264:	22 23       	and	r18, r18
 266:	71 f1       	breq	.+92     	; 0x2c4 <_Z22serialReceiveInterrupth+0xf0>
 268:	10 82       	st	Z, r1
 26a:	2c e0       	ldi	r18, 0x0C	; 12
 26c:	28 9f       	mul	r18, r24
 26e:	d0 01       	movw	r26, r0
 270:	29 9f       	mul	r18, r25
 272:	b0 0d       	add	r27, r0
 274:	11 24       	eor	r1, r1
 276:	a9 59       	subi	r26, 0x99	; 153
 278:	bf 4f       	sbci	r27, 0xFF	; 255
 27a:	12 96       	adiw	r26, 0x02	; 2
 27c:	cd 91       	ld	r28, X+
 27e:	dc 91       	ld	r29, X
 280:	13 97       	sbiw	r26, 0x03	; 3
 282:	48 81       	ld	r20, Y
 284:	27 e0       	ldi	r18, 0x07	; 7
 286:	28 9f       	mul	r18, r24
 288:	f0 01       	movw	r30, r0
 28a:	29 9f       	mul	r18, r25
 28c:	f0 0d       	add	r31, r0
 28e:	11 24       	eor	r1, r1
 290:	e0 5a       	subi	r30, 0xA0	; 160
 292:	ff 4f       	sbci	r31, 0xFF	; 255
 294:	81 e0       	ldi	r24, 0x01	; 1
 296:	90 e0       	ldi	r25, 0x00	; 0
 298:	9c 01       	movw	r18, r24
 29a:	05 80       	ldd	r0, Z+5	; 0x05
 29c:	02 c0       	rjmp	.+4      	; 0x2a2 <_Z22serialReceiveInterrupth+0xce>
 29e:	22 0f       	add	r18, r18
 2a0:	33 1f       	adc	r19, r19
 2a2:	0a 94       	dec	r0
 2a4:	e2 f7       	brpl	.-8      	; 0x29e <_Z22serialReceiveInterrupth+0xca>
 2a6:	24 2b       	or	r18, r20
 2a8:	28 83       	st	Y, r18
 2aa:	16 96       	adiw	r26, 0x06	; 6
 2ac:	0d 90       	ld	r0, X+
 2ae:	bc 91       	ld	r27, X
 2b0:	a0 2d       	mov	r26, r0
 2b2:	2c 91       	ld	r18, X
 2b4:	06 80       	ldd	r0, Z+6	; 0x06
 2b6:	02 c0       	rjmp	.+4      	; 0x2bc <_Z22serialReceiveInterrupth+0xe8>
 2b8:	88 0f       	add	r24, r24
 2ba:	99 1f       	adc	r25, r25
 2bc:	0a 94       	dec	r0
 2be:	e2 f7       	brpl	.-8      	; 0x2b8 <_Z22serialReceiveInterrupth+0xe4>
 2c0:	82 2b       	or	r24, r18
 2c2:	8c 93       	st	X, r24
 2c4:	df 91       	pop	r29
 2c6:	cf 91       	pop	r28
 2c8:	08 95       	ret

000002ca <_Z23serialTransmitInterrupth>:
 2ca:	cf 93       	push	r28
 2cc:	df 93       	push	r29
 2ce:	90 e0       	ldi	r25, 0x00	; 0
 2d0:	fc 01       	movw	r30, r24
 2d2:	e4 58       	subi	r30, 0x84	; 132
 2d4:	ff 4f       	sbci	r31, 0xFF	; 255
 2d6:	20 81       	ld	r18, Z
 2d8:	22 23       	and	r18, r18
 2da:	79 f0       	breq	.+30     	; 0x2fa <_Z23serialTransmitInterrupth+0x30>
 2dc:	2c e0       	ldi	r18, 0x0C	; 12
 2de:	28 9f       	mul	r18, r24
 2e0:	d0 01       	movw	r26, r0
 2e2:	29 9f       	mul	r18, r25
 2e4:	b0 0d       	add	r27, r0
 2e6:	11 24       	eor	r1, r1
 2e8:	a9 59       	subi	r26, 0x99	; 153
 2ea:	bf 4f       	sbci	r27, 0xFF	; 255
 2ec:	0d 90       	ld	r0, X+
 2ee:	bc 91       	ld	r27, X
 2f0:	a0 2d       	mov	r26, r0
 2f2:	80 81       	ld	r24, Z
 2f4:	8c 93       	st	X, r24
 2f6:	10 82       	st	Z, r1
 2f8:	58 c0       	rjmp	.+176    	; 0x3aa <_Z23serialTransmitInterrupth+0xe0>
 2fa:	9c 01       	movw	r18, r24
 2fc:	22 0f       	add	r18, r18
 2fe:	33 1f       	adc	r19, r19
 300:	f9 01       	movw	r30, r18
 302:	e0 58       	subi	r30, 0x80	; 128
 304:	ff 4f       	sbci	r31, 0xFF	; 255
 306:	40 81       	ld	r20, Z
 308:	51 81       	ldd	r21, Z+1	; 0x01
 30a:	d9 01       	movw	r26, r18
 30c:	a2 58       	subi	r26, 0x82	; 130
 30e:	bf 4f       	sbci	r27, 0xFF	; 255
 310:	2d 91       	ld	r18, X+
 312:	3c 91       	ld	r19, X
 314:	42 17       	cp	r20, r18
 316:	53 07       	cpc	r21, r19
 318:	29 f1       	breq	.+74     	; 0x364 <_Z23serialTransmitInterrupth+0x9a>
 31a:	2c e0       	ldi	r18, 0x0C	; 12
 31c:	28 9f       	mul	r18, r24
 31e:	d0 01       	movw	r26, r0
 320:	29 9f       	mul	r18, r25
 322:	b0 0d       	add	r27, r0
 324:	11 24       	eor	r1, r1
 326:	a9 59       	subi	r26, 0x99	; 153
 328:	bf 4f       	sbci	r27, 0xFF	; 255
 32a:	cd 91       	ld	r28, X+
 32c:	dc 91       	ld	r29, X
 32e:	20 81       	ld	r18, Z
 330:	31 81       	ldd	r19, Z+1	; 0x01
 332:	dc 01       	movw	r26, r24
 334:	84 e0       	ldi	r24, 0x04	; 4
 336:	aa 0f       	add	r26, r26
 338:	bb 1f       	adc	r27, r27
 33a:	8a 95       	dec	r24
 33c:	e1 f7       	brne	.-8      	; 0x336 <_Z23serialTransmitInterrupth+0x6c>
 33e:	a2 0f       	add	r26, r18
 340:	b3 1f       	adc	r27, r19
 342:	ac 57       	subi	r26, 0x7C	; 124
 344:	bf 4f       	sbci	r27, 0xFF	; 255
 346:	8c 91       	ld	r24, X
 348:	88 83       	st	Y, r24
 34a:	80 81       	ld	r24, Z
 34c:	91 81       	ldd	r25, Z+1	; 0x01
 34e:	0f 97       	sbiw	r24, 0x0f	; 15
 350:	30 f4       	brcc	.+12     	; 0x35e <_Z23serialTransmitInterrupth+0x94>
 352:	80 81       	ld	r24, Z
 354:	91 81       	ldd	r25, Z+1	; 0x01
 356:	01 96       	adiw	r24, 0x01	; 1
 358:	91 83       	std	Z+1, r25	; 0x01
 35a:	80 83       	st	Z, r24
 35c:	26 c0       	rjmp	.+76     	; 0x3aa <_Z23serialTransmitInterrupth+0xe0>
 35e:	11 82       	std	Z+1, r1	; 0x01
 360:	10 82       	st	Z, r1
 362:	23 c0       	rjmp	.+70     	; 0x3aa <_Z23serialTransmitInterrupth+0xe0>
 364:	fc 01       	movw	r30, r24
 366:	e3 58       	subi	r30, 0x83	; 131
 368:	ff 4f       	sbci	r31, 0xFF	; 255
 36a:	21 e0       	ldi	r18, 0x01	; 1
 36c:	20 83       	st	Z, r18
 36e:	2c e0       	ldi	r18, 0x0C	; 12
 370:	28 9f       	mul	r18, r24
 372:	f0 01       	movw	r30, r0
 374:	29 9f       	mul	r18, r25
 376:	f0 0d       	add	r31, r0
 378:	11 24       	eor	r1, r1
 37a:	e9 59       	subi	r30, 0x99	; 153
 37c:	ff 4f       	sbci	r31, 0xFF	; 255
 37e:	a2 81       	ldd	r26, Z+2	; 0x02
 380:	b3 81       	ldd	r27, Z+3	; 0x03
 382:	2c 91       	ld	r18, X
 384:	37 e0       	ldi	r19, 0x07	; 7
 386:	38 9f       	mul	r19, r24
 388:	f0 01       	movw	r30, r0
 38a:	39 9f       	mul	r19, r25
 38c:	f0 0d       	add	r31, r0
 38e:	11 24       	eor	r1, r1
 390:	e0 5a       	subi	r30, 0xA0	; 160
 392:	ff 4f       	sbci	r31, 0xFF	; 255
 394:	81 e0       	ldi	r24, 0x01	; 1
 396:	90 e0       	ldi	r25, 0x00	; 0
 398:	05 80       	ldd	r0, Z+5	; 0x05
 39a:	02 c0       	rjmp	.+4      	; 0x3a0 <_Z23serialTransmitInterrupth+0xd6>
 39c:	88 0f       	add	r24, r24
 39e:	99 1f       	adc	r25, r25
 3a0:	0a 94       	dec	r0
 3a2:	e2 f7       	brpl	.-8      	; 0x39c <_Z23serialTransmitInterrupth+0xd2>
 3a4:	80 95       	com	r24
 3a6:	82 23       	and	r24, r18
 3a8:	8c 93       	st	X, r24
 3aa:	df 91       	pop	r29
 3ac:	cf 91       	pop	r28
 3ae:	08 95       	ret

000003b0 <__vector_13>:
 3b0:	1f 92       	push	r1
 3b2:	0f 92       	push	r0
 3b4:	0f b6       	in	r0, 0x3f	; 63
 3b6:	0f 92       	push	r0
 3b8:	11 24       	eor	r1, r1
 3ba:	2f 93       	push	r18
 3bc:	3f 93       	push	r19
 3be:	4f 93       	push	r20
 3c0:	5f 93       	push	r21
 3c2:	6f 93       	push	r22
 3c4:	7f 93       	push	r23
 3c6:	8f 93       	push	r24
 3c8:	9f 93       	push	r25
 3ca:	af 93       	push	r26
 3cc:	bf 93       	push	r27
 3ce:	ef 93       	push	r30
 3d0:	ff 93       	push	r31
 3d2:	80 e0       	ldi	r24, 0x00	; 0
 3d4:	0e 94 ea 00 	call	0x1d4	; 0x1d4 <_Z22serialReceiveInterrupth>
 3d8:	ff 91       	pop	r31
 3da:	ef 91       	pop	r30
 3dc:	bf 91       	pop	r27
 3de:	af 91       	pop	r26
 3e0:	9f 91       	pop	r25
 3e2:	8f 91       	pop	r24
 3e4:	7f 91       	pop	r23
 3e6:	6f 91       	pop	r22
 3e8:	5f 91       	pop	r21
 3ea:	4f 91       	pop	r20
 3ec:	3f 91       	pop	r19
 3ee:	2f 91       	pop	r18
 3f0:	0f 90       	pop	r0
 3f2:	0f be       	out	0x3f, r0	; 63
 3f4:	0f 90       	pop	r0
 3f6:	1f 90       	pop	r1
 3f8:	18 95       	reti

000003fa <__vector_14>:
 3fa:	1f 92       	push	r1
 3fc:	0f 92       	push	r0
 3fe:	0f b6       	in	r0, 0x3f	; 63
 400:	0f 92       	push	r0
 402:	11 24       	eor	r1, r1
 404:	2f 93       	push	r18
 406:	3f 93       	push	r19
 408:	4f 93       	push	r20
 40a:	5f 93       	push	r21
 40c:	6f 93       	push	r22
 40e:	7f 93       	push	r23
 410:	8f 93       	push	r24
 412:	9f 93       	push	r25
 414:	af 93       	push	r26
 416:	bf 93       	push	r27
 418:	ef 93       	push	r30
 41a:	ff 93       	push	r31
 41c:	80 e0       	ldi	r24, 0x00	; 0
 41e:	0e 94 65 01 	call	0x2ca	; 0x2ca <_Z23serialTransmitInterrupth>
 422:	ff 91       	pop	r31
 424:	ef 91       	pop	r30
 426:	bf 91       	pop	r27
 428:	af 91       	pop	r26
 42a:	9f 91       	pop	r25
 42c:	8f 91       	pop	r24
 42e:	7f 91       	pop	r23
 430:	6f 91       	pop	r22
 432:	5f 91       	pop	r21
 434:	4f 91       	pop	r20
 436:	3f 91       	pop	r19
 438:	2f 91       	pop	r18
 43a:	0f 90       	pop	r0
 43c:	0f be       	out	0x3f, r0	; 63
 43e:	0f 90       	pop	r0
 440:	1f 90       	pop	r1
 442:	18 95       	reti

00000444 <__tablejump2__>:
 444:	ee 0f       	add	r30, r30
 446:	ff 1f       	adc	r31, r31
 448:	05 90       	lpm	r0, Z+
 44a:	f4 91       	lpm	r31, Z
 44c:	e0 2d       	mov	r30, r0
 44e:	09 94       	ijmp

00000450 <__do_global_dtors>:
 450:	10 e0       	ldi	r17, 0x00	; 0
 452:	cb e2       	ldi	r28, 0x2B	; 43
 454:	d0 e0       	ldi	r29, 0x00	; 0
 456:	04 c0       	rjmp	.+8      	; 0x460 <__do_global_dtors+0x10>
 458:	fe 01       	movw	r30, r28
 45a:	0e 94 22 02 	call	0x444	; 0x444 <__tablejump2__>
 45e:	21 96       	adiw	r28, 0x01	; 1
 460:	cc 32       	cpi	r28, 0x2C	; 44
 462:	d1 07       	cpc	r29, r17
 464:	c9 f7       	brne	.-14     	; 0x458 <__do_global_dtors+0x8>
 466:	f8 94       	cli

00000468 <__stop_program>:
 468:	ff cf       	rjmp	.-2      	; 0x468 <__stop_program>
